target datalayout = "e-m:e-p270:32:32-p271:32:32-p272:64:64-i64:64-i128:128-f80:128-n8:16:32:64-S128"
target triple = "x86_64-pc-linux-gnu"

%struct.ident_t = type { i32, i32, i32, i32, ptr }
%"struct.faiss::IndexIVFStats" = type { i64, i64, i64, i64, double, double }
%"struct.faiss::Index" = type <{ ptr, i32, [4 x i8], i64, i8, i8, [2 x i8], i32, float, [4 x i8] }>
%"struct.std::_Vector_base.49" = type { %"struct.std::_Vector_base<faiss::IndexIVFStats, std::allocator<faiss::IndexIVFStats>>::_Vector_impl" }
%"struct.std::_Vector_base<faiss::IndexIVFStats, std::allocator<faiss::IndexIVFStats>>::_Vector_impl" = type { %"struct.std::_Vector_base<faiss::IndexIVFStats, std::allocator<faiss::IndexIVFStats>>::_Vector_impl_data" }
%"struct.std::_Vector_base<faiss::IndexIVFStats, std::allocator<faiss::IndexIVFStats>>::_Vector_impl_data" = type { ptr, ptr, ptr }
%"class.std::__mutex_base" = type { %union.pthread_mutex_t }
%union.pthread_mutex_t = type { %struct.__pthread_mutex_s }
%struct.__pthread_mutex_s = type { i32, i32, i32, i32, i32, i16, i16, %struct.__pthread_internal_list }
%struct.__pthread_internal_list = type { ptr, ptr }
%"class.std::lock_guard" = type { ptr }

@3 = private unnamed_addr constant %struct.ident_t { i32 0, i32 514, i32 0, i32 22, ptr @0 }, align 8
@_ZTISt9exception = external constant ptr

; Function Attrs: inlinehint mustprogress nounwind uwtable
define internal noundef i32 @_ZL18__gthread_active_pv() #5 {
  ret i32 1
}

; Function Attrs: inlinehint mustprogress nounwind uwtable
define internal noundef i32 @_ZL22__gthread_mutex_unlockP15pthread_mutex_t(ptr noundef %0) #5 {
  %2 = alloca i32, align 4
  %3 = alloca ptr, align 8
  store ptr %0, ptr %3, align 8, !tbaa !109
  %4 = call noundef i32 @_ZL18__gthread_active_pv()
  %5 = icmp ne i32 %4, 0
  br i1 %5, label %6, label %9

6:                                                ; preds = %1
  %7 = load ptr, ptr %3, align 8, !tbaa !109
  %8 = call i32 @pthread_mutex_unlock(ptr noundef %7) #20
  store i32 %8, ptr %2, align 4
  br label %10

9:                                                ; preds = %1
  store i32 0, ptr %2, align 4
  br label %10

10:                                               ; preds = %9, %6
  %11 = load i32, ptr %2, align 4
  ret i32 %11
}

; Function Attrs: inlinehint mustprogress uwtable
define internal noundef i32 @_ZL20__gthread_mutex_lockP15pthread_mutex_t(ptr noundef %0) #11 {
  %2 = alloca i32, align 4
  %3 = alloca ptr, align 8
  store ptr %0, ptr %3, align 8, !tbaa !109
  %4 = call noundef i32 @_ZL18__gthread_active_pv()
  %5 = icmp ne i32 %4, 0
  br i1 %5, label %6, label %9

6:                                                ; preds = %1
  %7 = load ptr, ptr %3, align 8, !tbaa !109
  %8 = call i32 @pthread_mutex_lock(ptr noundef %7) #20
  store i32 %8, ptr %2, align 4
  br label %10

9:                                                ; preds = %1
  store i32 0, ptr %2, align 4
  br label %10

10:                                               ; preds = %9, %6
  %11 = load i32, ptr %2, align 4
  ret i32 %11
}

; Function Attrs: mustprogress uwtable
define linkonce_odr void @_ZNSt5mutex6unlockEv(ptr noundef nonnull align 8 dereferenceable(40) %0) #0 comdat align 2 {
  %2 = alloca ptr, align 8
  store ptr %0, ptr %2, align 8, !tbaa !330
  %3 = load ptr, ptr %2, align 8
  %4 = getelementptr inbounds nuw %"class.std::__mutex_base", ptr %3, i32 0, i32 0
  %5 = call noundef i32 @_ZL22__gthread_mutex_unlockP15pthread_mutex_t(ptr noundef %4)
  ret void
}

; Function Attrs: mustprogress uwtable
define linkonce_odr void @_ZNSt5mutex4lockEv(ptr noundef nonnull align 8 dereferenceable(40) %0) #0 comdat align 2 {
  %2 = alloca ptr, align 8
  %3 = alloca i32, align 4
  store ptr %0, ptr %2, align 8, !tbaa !330
  %4 = load ptr, ptr %2, align 8
  call void @llvm.lifetime.start.p0(i64 4, ptr %3) #20
  %5 = getelementptr inbounds nuw %"class.std::__mutex_base", ptr %4, i32 0, i32 0
  %6 = call noundef i32 @_ZL20__gthread_mutex_lockP15pthread_mutex_t(ptr noundef %5)
  store i32 %6, ptr %3, align 4, !tbaa !78
  %7 = load i32, ptr %3, align 4, !tbaa !78
  %8 = icmp ne i32 %7, 0
  br i1 %8, label %9, label %11

9:                                                ; preds = %1
  %10 = load i32, ptr %3, align 4, !tbaa !78
  call void @_ZSt20__throw_system_errori(i32 noundef %10) #28
  unreachable

11:                                               ; preds = %1
  call void @llvm.lifetime.end.p0(i64 4, ptr %3) #20
  ret void
}

; Function Attrs: mustprogress nounwind uwtable
define void @_ZN5faiss13IndexIVFStats5resetEv(ptr noundef nonnull align 8 dereferenceable(48) %0) #1 align 2 {
  %2 = alloca ptr, align 8
  store ptr %0, ptr %2, align 8, !tbaa !112
  %3 = load ptr, ptr %2, align 8
  call void @llvm.memset.p0.i64(ptr align 1 %3, i8 0, i64 48, i1 false)
  ret void
}

; Function Attrs: mustprogress nounwind uwtable
define linkonce_odr void @_ZNSt10lock_guardISt5mutexED2Ev(ptr noundef nonnull align 8 dereferenceable(8) %0) unnamed_addr #1 comdat align 2 personality ptr @__gxx_personality_v0 {
  %2 = alloca ptr, align 8
  store ptr %0, ptr %2, align 8, !tbaa !338
  %3 = load ptr, ptr %2, align 8
  %4 = getelementptr inbounds nuw %"class.std::lock_guard", ptr %3, i32 0, i32 0
  %5 = load ptr, ptr %4, align 8, !tbaa !340
  invoke void @_ZNSt5mutex6unlockEv(ptr noundef nonnull align 8 dereferenceable(40) %5)
          to label %6 unwind label %7

6:                                                ; preds = %1
  ret void

7:                                                ; preds = %1
  %8 = landingpad { ptr, i32 }
          catch ptr null
  %9 = extractvalue { ptr, i32 } %8, 0
  call void @__clang_call_terminate(ptr %9) #26
  unreachable
}

; Function Attrs: mustprogress uwtable
define linkonce_odr void @_ZNSt10lock_guardISt5mutexEC2ERS0_(ptr noundef nonnull align 8 dereferenceable(8) %0, ptr noundef nonnull align 8 dereferenceable(40) %1) unnamed_addr #0 comdat align 2 {
  %3 = alloca ptr, align 8
  %4 = alloca ptr, align 8
  store ptr %0, ptr %3, align 8, !tbaa !338
  store ptr %1, ptr %4, align 8, !tbaa !330
  %5 = load ptr, ptr %3, align 8
  %6 = getelementptr inbounds nuw %"class.std::lock_guard", ptr %5, i32 0, i32 0
  %7 = load ptr, ptr %4, align 8, !tbaa !330
  store ptr %7, ptr %6, align 8, !tbaa !330
  %8 = getelementptr inbounds nuw %"class.std::lock_guard", ptr %5, i32 0, i32 0
  %9 = load ptr, ptr %8, align 8, !tbaa !340
  call void @_ZNSt5mutex4lockEv(ptr noundef nonnull align 8 dereferenceable(40) %9)
  ret void
}

; Function Attrs: mustprogress nounwind uwtable
define linkonce_odr noundef nonnull align 8 dereferenceable(48) ptr @_ZNSt6vectorIN5faiss13IndexIVFStatsESaIS1_EEixEm(ptr noundef nonnull align 8 dereferenceable(24) %0, i64 noundef %1) #1 comdat align 2 {
  %3 = alloca ptr, align 8
  %4 = alloca i64, align 8
  store ptr %0, ptr %3, align 8, !tbaa !326
  store i64 %1, ptr %4, align 8, !tbaa !9
  %5 = load ptr, ptr %3, align 8
  %6 = getelementptr inbounds nuw %"struct.std::_Vector_base.49", ptr %5, i32 0, i32 0
  %7 = getelementptr inbounds nuw %"struct.std::_Vector_base<faiss::IndexIVFStats, std::allocator<faiss::IndexIVFStats>>::_Vector_impl_data", ptr %6, i32 0, i32 0
  %8 = load ptr, ptr %7, align 8, !tbaa !336
  %9 = load i64, ptr %4, align 8, !tbaa !9
  %10 = getelementptr inbounds nuw %"struct.faiss::IndexIVFStats", ptr %8, i64 %9
  ret ptr %10
}

; Function Attrs: mustprogress uwtable
define linkonce_odr void @_ZN5faiss13IndexIVFStatsC2Ev(ptr noundef nonnull align 8 dereferenceable(48) %0) unnamed_addr #0 comdat align 2 {
  %2 = alloca ptr, align 8
  store ptr %0, ptr %2, align 8, !tbaa !112
  %3 = load ptr, ptr %2, align 8
  call void @_ZN5faiss13IndexIVFStats5resetEv(ptr noundef nonnull align 8 dereferenceable(48) %3)
  ret void
}

; Function Attrs: noinline norecurse nounwind uwtable
define internal void @_ZNK5faiss8IndexIVF6searchElPKflPfPlPKNS_16SearchParametersE.omp_outlined(ptr noalias noundef %0, ptr noalias noundef %1, ptr noundef nonnull align 4 dereferenceable(4) %2, ptr noundef nonnull align 8 dereferenceable(8) %3, ptr noundef nonnull align 8 dereferenceable(32) %4, ptr noundef nonnull align 8 dereferenceable(8) %5, ptr noundef %6, ptr noundef nonnull align 8 dereferenceable(8) %7, ptr noundef nonnull align 8 dereferenceable(8) %8, ptr noundef nonnull align 8 dereferenceable(8) %9, ptr noundef nonnull align 8 dereferenceable(24) %10, ptr noundef nonnull align 8 dereferenceable(40) %11, ptr noundef nonnull align 8 dereferenceable(32) %12) #22 personality ptr @__gxx_personality_v0 {
  %14 = alloca ptr, align 8
  %15 = alloca ptr, align 8
  %16 = alloca ptr, align 8
  %17 = alloca ptr, align 8
  %18 = alloca ptr, align 8
  %19 = alloca ptr, align 8
  %20 = alloca ptr, align 8
  %21 = alloca ptr, align 8
  %22 = alloca ptr, align 8
  %23 = alloca ptr, align 8
  %24 = alloca ptr, align 8
  %25 = alloca ptr, align 8
  %26 = alloca ptr, align 8
  %27 = alloca i64, align 8
  %28 = alloca i64, align 8
  %29 = alloca i64, align 8
  %30 = alloca i64, align 8
  %31 = alloca i64, align 8
  %32 = alloca i64, align 8
  %33 = alloca i64, align 8
  %34 = alloca i32, align 4
  %35 = alloca i64, align 8
  %36 = alloca %"struct.faiss::IndexIVFStats", align 8
  %37 = alloca i64, align 8
  %38 = alloca i64, align 8
  %39 = alloca ptr, align 8
  %40 = alloca i32, align 4
  %41 = alloca ptr, align 8
  %42 = alloca %"class.std::lock_guard", align 8
  store ptr %0, ptr %14, align 8, !tbaa !296
  store ptr %1, ptr %15, align 8, !tbaa !296
  store ptr %2, ptr %16, align 8, !tbaa !296
  store ptr %3, ptr %17, align 8, !tbaa !13
  store ptr %4, ptr %18, align 8, !tbaa !109
  store ptr %5, ptr %19, align 8, !tbaa !332
  store ptr %6, ptr %20, align 8, !tbaa !45
  store ptr %7, ptr %21, align 8, !tbaa !332
  store ptr %8, ptr %22, align 8, !tbaa !13
  store ptr %9, ptr %23, align 8, !tbaa !274
  store ptr %10, ptr %24, align 8, !tbaa !326
  store ptr %11, ptr %25, align 8, !tbaa !330
  store ptr %12, ptr %26, align 8, !tbaa !157
  %43 = load ptr, ptr %16, align 8, !tbaa !296
  %44 = load ptr, ptr %17, align 8, !tbaa !13
  %45 = load ptr, ptr %18, align 8, !tbaa !109
  %46 = load ptr, ptr %19, align 8, !tbaa !332
  %47 = load ptr, ptr %20, align 8, !tbaa !45
  %48 = load ptr, ptr %21, align 8, !tbaa !332
  %49 = load ptr, ptr %22, align 8, !tbaa !13
  %50 = load ptr, ptr %23, align 8, !tbaa !274
  %51 = load ptr, ptr %24, align 8, !tbaa !326
  %52 = load ptr, ptr %25, align 8, !tbaa !330
  %53 = load ptr, ptr %26, align 8, !tbaa !157
  call void @llvm.lifetime.start.p0(i64 8, ptr %27) #20
  call void @llvm.lifetime.start.p0(i64 8, ptr %28) #20
  %54 = load i32, ptr %43, align 4, !tbaa !78
  %55 = sext i32 %54 to i64
  store i64 %55, ptr %28, align 8, !tbaa !9
  call void @llvm.lifetime.start.p0(i64 8, ptr %29) #20
  %56 = load i64, ptr %28, align 8, !tbaa !9
  %57 = sub nsw i64 %56, 0
  %58 = sdiv i64 %57, 1
  %59 = sub nsw i64 %58, 1
  store i64 %59, ptr %29, align 8, !tbaa !9
  call void @llvm.lifetime.start.p0(i64 8, ptr %30) #20
  store i64 0, ptr %30, align 8, !tbaa !9
  call void @llvm.lifetime.end.p0(i64 8, ptr %30) #20
  %60 = load i64, ptr %28, align 8, !tbaa !9
  %61 = icmp slt i64 0, %60
  br i1 %61, label %62, label %156

62:                                               ; preds = %13
  call void @llvm.lifetime.start.p0(i64 8, ptr %31) #20
  store i64 0, ptr %31, align 8, !tbaa !9
  call void @llvm.lifetime.start.p0(i64 8, ptr %32) #20
  %63 = load i64, ptr %29, align 8, !tbaa !9
  store i64 %63, ptr %32, align 8, !tbaa !9
  call void @llvm.lifetime.start.p0(i64 8, ptr %33) #20
  store i64 1, ptr %33, align 8, !tbaa !9
  call void @llvm.lifetime.start.p0(i64 4, ptr %34) #20
  store i32 0, ptr %34, align 4, !tbaa !78
  call void @llvm.lifetime.start.p0(i64 8, ptr %35) #20
  %64 = load ptr, ptr %14, align 8
  %65 = load i32, ptr %64, align 4, !tbaa !78
  call void @__kmpc_for_static_init_8(ptr @3, i32 %65, i32 34, ptr %34, ptr %31, ptr %32, ptr %33, i64 1, i64 1)
  %66 = load i64, ptr %32, align 8, !tbaa !9
  %67 = load i64, ptr %29, align 8, !tbaa !9
  %68 = icmp sgt i64 %66, %67
  br i1 %68, label %69, label %71

69:                                               ; preds = %62
  %70 = load i64, ptr %29, align 8, !tbaa !9
  br label %73

71:                                               ; preds = %62
  %72 = load i64, ptr %32, align 8, !tbaa !9
  br label %73

73:                                               ; preds = %71, %69
  %74 = phi i64 [ %70, %69 ], [ %72, %71 ]
  store i64 %74, ptr %32, align 8, !tbaa !9
  %75 = load i64, ptr %31, align 8, !tbaa !9
  store i64 %75, ptr %27, align 8, !tbaa !9
  br label %76

76:                                               ; preds = %149, %73
  %77 = load i64, ptr %27, align 8, !tbaa !9
  %78 = load i64, ptr %32, align 8, !tbaa !9
  %79 = icmp sle i64 %77, %78
  br i1 %79, label %81, label %80

80:                                               ; preds = %76
  br label %152

81:                                               ; preds = %76
  %82 = load i64, ptr %27, align 8, !tbaa !9
  %83 = mul nsw i64 %82, 1
  %84 = add nsw i64 0, %83
  store i64 %84, ptr %35, align 8, !tbaa !9
  call void @llvm.lifetime.start.p0(i64 48, ptr %36) #20
  invoke void @_ZN5faiss13IndexIVFStatsC2Ev(ptr noundef nonnull align 8 dereferenceable(48) %36)
          to label %85 unwind label %157

85:                                               ; preds = %81
  call void @llvm.lifetime.start.p0(i64 8, ptr %37) #20
  %86 = load i64, ptr %44, align 8, !tbaa !9
  %87 = load i64, ptr %35, align 8, !tbaa !9
  %88 = mul nsw i64 %86, %87
  %89 = load i32, ptr %43, align 4, !tbaa !78
  %90 = sext i32 %89 to i64
  %91 = sdiv i64 %88, %90
  store i64 %91, ptr %37, align 8, !tbaa !9
  call void @llvm.lifetime.start.p0(i64 8, ptr %38) #20
  %92 = load i64, ptr %44, align 8, !tbaa !9
  %93 = load i64, ptr %35, align 8, !tbaa !9
  %94 = add nsw i64 %93, 1
  %95 = mul nsw i64 %92, %94
  %96 = load i32, ptr %43, align 4, !tbaa !78
  %97 = sext i32 %96 to i64
  %98 = sdiv i64 %95, %97
  store i64 %98, ptr %38, align 8, !tbaa !9
  %99 = load i64, ptr %38, align 8, !tbaa !9
  %100 = load i64, ptr %37, align 8, !tbaa !9
  %101 = icmp sgt i64 %99, %100
  br i1 %101, label %102, label %147

102:                                              ; preds = %85
  %103 = load i64, ptr %38, align 8, !tbaa !9
  %104 = load i64, ptr %37, align 8, !tbaa !9
  %105 = sub nsw i64 %103, %104
  %106 = load ptr, ptr %46, align 8, !tbaa !15
  %107 = load i64, ptr %37, align 8, !tbaa !9
  %108 = getelementptr inbounds nuw %"struct.faiss::Index", ptr %47, i32 0, i32 1
  %109 = load i32, ptr %108, align 8, !tbaa !52
  %110 = sext i32 %109 to i64
  %111 = mul nsw i64 %107, %110
  %112 = getelementptr inbounds float, ptr %106, i64 %111
  %113 = load ptr, ptr %48, align 8, !tbaa !15
  %114 = load i64, ptr %37, align 8, !tbaa !9
  %115 = load i64, ptr %49, align 8, !tbaa !9
  %116 = mul nsw i64 %114, %115
  %117 = getelementptr inbounds float, ptr %113, i64 %116
  %118 = load ptr, ptr %50, align 8, !tbaa !13
  %119 = load i64, ptr %37, align 8, !tbaa !9
  %120 = load i64, ptr %49, align 8, !tbaa !9
  %121 = mul nsw i64 %119, %120
  %122 = getelementptr inbounds i64, ptr %118, i64 %121
  %123 = load i64, ptr %35, align 8, !tbaa !9
  %124 = call noundef nonnull align 8 dereferenceable(48) ptr @_ZNSt6vectorIN5faiss13IndexIVFStatsESaIS1_EEixEm(ptr noundef nonnull align 8 dereferenceable(24) %51, i64 noundef %123) #20
  invoke void @"_ZZNK5faiss8IndexIVF6searchElPKflPfPlPKNS_16SearchParametersEENK3$_0clElS2_S3_S4_PNS_13IndexIVFStatsE"(ptr noundef nonnull align 8 dereferenceable(32) %45, i64 noundef %105, ptr noundef %112, ptr noundef %117, ptr noundef %122, ptr noundef %124)
          to label %125 unwind label %126

125:                                              ; preds = %102
  br label %146

126:                                              ; preds = %102
  %127 = landingpad { ptr, i32 }
          catch ptr @_ZTISt9exception
          catch ptr null
  %128 = extractvalue { ptr, i32 } %127, 0
  store ptr %128, ptr %39, align 8
  %129 = extractvalue { ptr, i32 } %127, 1
  store i32 %129, ptr %40, align 4
  br label %130

130:                                              ; preds = %126
  %131 = load i32, ptr %40, align 4
  %132 = call i32 @llvm.eh.typeid.for.p0(ptr @_ZTISt9exception) #20
  %133 = icmp eq i32 %131, %132
  br i1 %133, label %134, label %160

134:                                              ; preds = %130
  call void @llvm.lifetime.start.p0(i64 8, ptr %41) #20
  %135 = load ptr, ptr %39, align 8
  %136 = call ptr @__cxa_begin_catch(ptr %135) #20
  store ptr %136, ptr %41, align 8
  call void @llvm.lifetime.start.p0(i64 8, ptr %42) #20
  invoke void @_ZNSt10lock_guardISt5mutexEC2ERS0_(ptr noundef nonnull align 8 dereferenceable(8) %42, ptr noundef nonnull align 8 dereferenceable(40) %52)
          to label %137 unwind label %157

137:                                              ; preds = %134
  %138 = load ptr, ptr %41, align 8, !tbaa !334
  %139 = load ptr, ptr %138, align 8, !tbaa !23
  %140 = getelementptr inbounds ptr, ptr %139, i64 2
  %141 = load ptr, ptr %140, align 8
  %142 = call noundef ptr %141(ptr noundef nonnull align 8 dereferenceable(8) %138) #20
  %143 = invoke noundef nonnull align 8 dereferenceable(32) ptr @_ZNSt7__cxx1112basic_stringIcSt11char_traitsIcESaIcEEaSEPKc(ptr noundef nonnull align 8 dereferenceable(32) %53, ptr noundef %142)
          to label %144 unwind label %157

144:                                              ; preds = %137
  call void @_ZNSt10lock_guardISt5mutexED2Ev(ptr noundef nonnull align 8 dereferenceable(8) %42) #20
  call void @llvm.lifetime.end.p0(i64 8, ptr %42) #20
  invoke void @__cxa_end_catch()
          to label %145 unwind label %157

145:                                              ; preds = %144
  call void @llvm.lifetime.end.p0(i64 8, ptr %41) #20
  br label %146

146:                                              ; preds = %145, %125
  br label %147

147:                                              ; preds = %146, %85
  call void @llvm.lifetime.end.p0(i64 8, ptr %38) #20
  call void @llvm.lifetime.end.p0(i64 8, ptr %37) #20
  call void @llvm.lifetime.end.p0(i64 48, ptr %36) #20
  br label %148

148:                                              ; preds = %147
  br label %149

149:                                              ; preds = %148
  %150 = load i64, ptr %27, align 8, !tbaa !9
  %151 = add nsw i64 %150, 1
  store i64 %151, ptr %27, align 8, !tbaa !9
  br label %76

152:                                              ; preds = %80
  br label %153

153:                                              ; preds = %152
  %154 = load ptr, ptr %14, align 8
  %155 = load i32, ptr %154, align 4, !tbaa !78
  call void @__kmpc_for_static_fini(ptr @3, i32 %155)
  call void @llvm.lifetime.end.p0(i64 8, ptr %35) #20
  call void @llvm.lifetime.end.p0(i64 4, ptr %34) #20
  call void @llvm.lifetime.end.p0(i64 8, ptr %33) #20
  call void @llvm.lifetime.end.p0(i64 8, ptr %32) #20
  call void @llvm.lifetime.end.p0(i64 8, ptr %31) #20
  br label %156

156:                                              ; preds = %153, %13
  call void @llvm.lifetime.end.p0(i64 8, ptr %29) #20
  call void @llvm.lifetime.end.p0(i64 8, ptr %28) #20
  call void @llvm.lifetime.end.p0(i64 8, ptr %27) #20
  ret void

157:                                              ; preds = %144, %137, %134, %81
  %158 = landingpad { ptr, i32 }
          catch ptr null
  %159 = extractvalue { ptr, i32 } %158, 0
  call void @__clang_call_terminate(ptr %159) #26
  unreachable

160:                                              ; preds = %130
  %161 = load ptr, ptr %39, align 8
  call void @__clang_call_terminate(ptr %161) #26
  unreachable
}