; Function Attrs: noinline norecurse nounwind uwtable
define internal void @_ZNK5faiss8IndexIVF6searchElPKflPfPlPKNS_16SearchParametersE.omp_outlined(ptr noalias noundef readonly captures(none) %0, ptr noalias readnone captures(none) %1, ptr noundef nonnull readonly align 4 captures(none) dereferenceable(4) %2, ptr noundef nonnull readonly align 8 captures(none) dereferenceable(8) %3, ptr noundef nonnull readonly align 8 captures(none) dereferenceable(32) %4, ptr noundef nonnull readonly align 8 captures(none) dereferenceable(8) %5, ptr noundef readonly captures(none) %6, ptr noundef nonnull readonly align 8 captures(none) dereferenceable(8) %7, ptr noundef nonnull readonly align 8 captures(none) dereferenceable(8) %8, ptr noundef nonnull readonly align 8 captures(none) dereferenceable(8) %9, ptr noundef nonnull readonly align 8 captures(none) dereferenceable(24) %10, ptr noundef nonnull align 8 dereferenceable(40) %11, ptr noundef nonnull align 8 dereferenceable(32) %12) #29 personality ptr @__gxx_personality_v0 {
  %14 = alloca i64, align 8
  %15 = alloca i64, align 8
  %16 = alloca i64, align 8
  %17 = alloca i32, align 4
  %18 = load i32, ptr %2, align 4, !tbaa !78
  %19 = icmp sgt i32 %18, 0
  br i1 %19, label %20, label %71

20:                                               ; preds = %13
  %narrow = add nsw i32 %18, -1
  %21 = zext nneg i32 %narrow to i64
  call void @llvm.lifetime.start.p0(i64 8, ptr nonnull %14) #27
  store i64 0, ptr %14, align 8, !tbaa !19
  call void @llvm.lifetime.start.p0(i64 8, ptr nonnull %15) #27
  store i64 %21, ptr %15, align 8, !tbaa !19
  call void @llvm.lifetime.start.p0(i64 8, ptr nonnull %16) #27
  store i64 1, ptr %16, align 8, !tbaa !19
  call void @llvm.lifetime.start.p0(i64 4, ptr nonnull %17) #27
  store i32 0, ptr %17, align 4, !tbaa !78
  %22 = load i32, ptr %0, align 4, !tbaa !78
  call void @__kmpc_for_static_init_8(ptr nonnull @3, i32 %22, i32 34, ptr nonnull %17, ptr nonnull %14, ptr nonnull %15, ptr nonnull %16, i64 1, i64 1)
  %23 = load i64, ptr %15, align 8, !tbaa !19
  %24 = call i64 @llvm.smin.i64(i64 %23, i64 %21)
  store i64 %24, ptr %15, align 8, !tbaa !19
  %25 = load i64, ptr %14, align 8, !tbaa !19
  %.not40 = icmp sgt i64 %25, %24
  br i1 %.not40, label %._crit_edge, label %.lr.ph

.lr.ph:                                           ; preds = %20
  %26 = getelementptr inbounds nuw i8, ptr %6, i64 8
  br label %27

27:                                               ; preds = %.lr.ph, %69
  %.041 = phi i64 [ %25, %.lr.ph ], [ %33, %69 ]
  %28 = load i64, ptr %3, align 8, !tbaa !19
  %29 = mul nsw i64 %28, %.041
  %30 = load i32, ptr %2, align 4, !tbaa !78
  %31 = sext i32 %30 to i64
  %32 = sdiv i64 %29, %31
  %33 = add nsw i64 %.041, 1
  %34 = mul nsw i64 %28, %33
  %35 = sdiv i64 %34, %31
  %36 = icmp sgt i64 %35, %32
  br i1 %36, label %37, label %69

37:                                               ; preds = %27
  %38 = sub nsw i64 %35, %32
  %39 = load ptr, ptr %5, align 8, !tbaa !59
  %40 = load i32, ptr %26, align 8, !tbaa !36
  %41 = sext i32 %40 to i64
  %42 = mul nsw i64 %32, %41
  %43 = getelementptr inbounds float, ptr %39, i64 %42
  %44 = load ptr, ptr %7, align 8, !tbaa !59
  %45 = load i64, ptr %8, align 8, !tbaa !19
  %46 = mul nsw i64 %45, %32
  %47 = getelementptr inbounds float, ptr %44, i64 %46
  %48 = load ptr, ptr %9, align 8, !tbaa !61
  %49 = getelementptr inbounds i64, ptr %48, i64 %46
  %50 = load ptr, ptr %10, align 8, !tbaa !79
  %51 = getelementptr inbounds nuw %"struct.faiss::IndexIVFStats", ptr %50, i64 %.041
  invoke fastcc void @"_ZZNK5faiss8IndexIVF6searchElPKflPfPlPKNS_16SearchParametersEENK3$_0clElS2_S3_S4_PNS_13IndexIVFStatsE"(ptr noundef nonnull align 8 dereferenceable(32) %4, i64 noundef %38, ptr noundef %43, ptr noundef %47, ptr noundef %49, ptr noundef nonnull %51)
          to label %69 unwind label %52

52:                                               ; preds = %37
  %53 = landingpad { ptr, i32 }
          catch ptr @_ZTISt9exception
          catch ptr null
  %54 = extractvalue { ptr, i32 } %53, 0
  %55 = extractvalue { ptr, i32 } %53, 1
  %56 = call i32 @llvm.eh.typeid.for.p0(ptr nonnull @_ZTISt9exception) #27
  %57 = icmp eq i32 %55, %56
  br i1 %57, label %58, label %74

58:                                               ; preds = %52
  %59 = call ptr @__cxa_begin_catch(ptr %54) #27
  %60 = call noundef i32 @pthread_mutex_lock(ptr noundef nonnull align 8 dereferenceable(40) %11) #27
  %.not.i.i = icmp eq i32 %60, 0
  br i1 %.not.i.i, label %_ZNSt10lock_guardISt5mutexEC2ERS0_.exit, label %61

61:                                               ; preds = %58
  invoke void @_ZSt20__throw_system_errori(i32 noundef %60) #42
          to label %.noexc unwind label %.loopexit.split-lp

.noexc:                                           ; preds = %61
  unreachable

_ZNSt10lock_guardISt5mutexEC2ERS0_.exit:          ; preds = %58
  %62 = load ptr, ptr %59, align 8, !tbaa !14
  %63 = getelementptr inbounds nuw i8, ptr %62, i64 16
  %64 = load ptr, ptr %63, align 8
  %65 = call noundef ptr %64(ptr noundef nonnull align 8 dereferenceable(8) %59) #27
  %66 = invoke noundef nonnull align 8 dereferenceable(32) ptr @_ZNSt7__cxx1112basic_stringIcSt11char_traitsIcESaIcEEaSEPKc(ptr noundef nonnull align 8 dereferenceable(32) %12, ptr noundef %65)
          to label %67 unwind label %.loopexit

67:                                               ; preds = %_ZNSt10lock_guardISt5mutexEC2ERS0_.exit
  %68 = call noundef i32 @pthread_mutex_unlock(ptr noundef nonnull align 8 dereferenceable(40) %11) #27
  invoke void @__cxa_end_catch()
          to label %69 unwind label %.loopexit

69:                                               ; preds = %67, %37, %27
  %70 = load i64, ptr %15, align 8, !tbaa !19
  %.not.not = icmp slt i64 %.041, %70
  br i1 %.not.not, label %27, label %._crit_edge

._crit_edge:                                      ; preds = %69, %20
  call void @__kmpc_for_static_fini(ptr nonnull @3, i32 %22)
  call void @llvm.lifetime.end.p0(i64 4, ptr nonnull %17) #27
  call void @llvm.lifetime.end.p0(i64 8, ptr nonnull %16) #27
  call void @llvm.lifetime.end.p0(i64 8, ptr nonnull %15) #27
  call void @llvm.lifetime.end.p0(i64 8, ptr nonnull %14) #27
  br label %71

71:                                               ; preds = %._crit_edge, %13
  ret void

.loopexit:                                        ; preds = %_ZNSt10lock_guardISt5mutexEC2ERS0_.exit, %67
  %lpad.loopexit = landingpad { ptr, i32 }
          catch ptr null
  br label %72

.loopexit.split-lp:                               ; preds = %61
  %lpad.loopexit.split-lp = landingpad { ptr, i32 }
          catch ptr null
  br label %72

72:                                               ; preds = %.loopexit.split-lp, %.loopexit
  %lpad.phi = phi { ptr, i32 } [ %lpad.loopexit, %.loopexit ], [ %lpad.loopexit.split-lp, %.loopexit.split-lp ]
  %73 = extractvalue { ptr, i32 } %lpad.phi, 0
  call void @__clang_call_terminate(ptr %73) #41
  unreachable

74:                                               ; preds = %52
  call void @__clang_call_terminate(ptr %54) #41
  unreachable
}